target datalayout = "e-m:e-p270:32:32-p271:32:32-p272:64:64-i64:64-i128:128-f80:128-n8:16:32:64-S128"
target triple = "x86_64-pc-linux-gnu"

%struct.NSVGimage = type { float, float, ptr }
%struct.NSVGshape = type { [64 x i8], %struct.NSVGpaint, %struct.NSVGpaint, float, float, float, [8 x float], i8, i8, i8, float, i8, i8, [4 x float], [64 x i8], [64 x i8], [6 x float], ptr, ptr }
%struct.NSVGpaint = type { i8, %union.anon }
%union.anon = type { ptr }
%struct.NSVGpath = type { ptr, i32, i8, [4 x float], ptr }

; Function Attrs: nounwind uwtable
define internal void @nsvg__deletePaint(ptr noundef %0) #0 {
  %2 = alloca ptr, align 8
  store ptr %0, ptr %2, align 8, !tbaa !96
  %3 = load ptr, ptr %2, align 8, !tbaa !96
  %4 = getelementptr inbounds nuw %struct.NSVGpaint, ptr %3, i32 0, i32 0
  %5 = load i8, ptr %4, align 8, !tbaa !98
  %6 = sext i8 %5 to i32
  %7 = icmp eq i32 %6, 2
  br i1 %7, label %14, label %8

8:                                                ; preds = %1
  %9 = load ptr, ptr %2, align 8, !tbaa !96
  %10 = getelementptr inbounds nuw %struct.NSVGpaint, ptr %9, i32 0, i32 0
  %11 = load i8, ptr %10, align 8, !tbaa !98
  %12 = sext i8 %11 to i32
  %13 = icmp eq i32 %12, 3
  br i1 %13, label %14, label %18

14:                                               ; preds = %8, %1
  %15 = load ptr, ptr %2, align 8, !tbaa !96
  %16 = getelementptr inbounds nuw %struct.NSVGpaint, ptr %15, i32 0, i32 1
  %17 = load ptr, ptr %16, align 8, !tbaa !12
  call void @free(ptr noundef %17) #11
  br label %18

18:                                               ; preds = %14, %8
  ret void
}

; Function Attrs: nounwind uwtable
define internal void @nsvg__deletePaths(ptr noundef %0) #0 {
  %2 = alloca ptr, align 8
  %3 = alloca ptr, align 8
  store ptr %0, ptr %2, align 8, !tbaa !73
  br label %4

4:                                                ; preds = %19, %1
  %5 = load ptr, ptr %2, align 8, !tbaa !73
  %6 = icmp ne ptr %5, null
  br i1 %6, label %7, label %22

7:                                                ; preds = %4
  call void @llvm.lifetime.start.p0(i64 8, ptr %3) #11
  %8 = load ptr, ptr %2, align 8, !tbaa !73
  %9 = getelementptr inbounds nuw %struct.NSVGpath, ptr %8, i32 0, i32 4
  %10 = load ptr, ptr %9, align 8, !tbaa !79
  store ptr %10, ptr %3, align 8, !tbaa !73
  %11 = load ptr, ptr %2, align 8, !tbaa !73
  %12 = getelementptr inbounds nuw %struct.NSVGpath, ptr %11, i32 0, i32 0
  %13 = load ptr, ptr %12, align 8, !tbaa !76
  %14 = icmp ne ptr %13, null
  br i1 %14, label %15, label %19

15:                                               ; preds = %7
  %16 = load ptr, ptr %2, align 8, !tbaa !73
  %17 = getelementptr inbounds nuw %struct.NSVGpath, ptr %16, i32 0, i32 0
  %18 = load ptr, ptr %17, align 8, !tbaa !76
  call void @free(ptr noundef %18) #11
  br label %19

19:                                               ; preds = %15, %7
  %20 = load ptr, ptr %2, align 8, !tbaa !73
  call void @free(ptr noundef %20) #11
  %21 = load ptr, ptr %3, align 8, !tbaa !73
  store ptr %21, ptr %2, align 8, !tbaa !73
  call void @llvm.lifetime.end.p0(i64 8, ptr %3) #11
  br label %4, !llvm.loop !95

22:                                               ; preds = %4
  ret void
}

; Function Attrs: nounwind uwtable
define dso_local void @nsvgDelete(ptr noundef %0) #0 {
  %2 = alloca ptr, align 8
  %3 = alloca ptr, align 8
  %4 = alloca ptr, align 8
  %5 = alloca i32, align 4
  store ptr %0, ptr %2, align 8, !tbaa !25
  call void @llvm.lifetime.start.p0(i64 8, ptr %3) #11
  call void @llvm.lifetime.start.p0(i64 8, ptr %4) #11
  %6 = load ptr, ptr %2, align 8, !tbaa !25
  %7 = icmp eq ptr %6, null
  br i1 %7, label %8, label %9

8:                                                ; preds = %1
  store i32 1, ptr %5, align 4
  br label %31

9:                                                ; preds = %1
  %10 = load ptr, ptr %2, align 8, !tbaa !25
  %11 = getelementptr inbounds nuw %struct.NSVGimage, ptr %10, i32 0, i32 2
  %12 = load ptr, ptr %11, align 8, !tbaa !54
  store ptr %12, ptr %4, align 8, !tbaa !56
  br label %13

13:                                               ; preds = %16, %9
  %14 = load ptr, ptr %4, align 8, !tbaa !56
  %15 = icmp ne ptr %14, null
  br i1 %15, label %16, label %29

16:                                               ; preds = %13
  %17 = load ptr, ptr %4, align 8, !tbaa !56
  %18 = getelementptr inbounds nuw %struct.NSVGshape, ptr %17, i32 0, i32 18
  %19 = load ptr, ptr %18, align 8, !tbaa !61
  store ptr %19, ptr %3, align 8, !tbaa !56
  %20 = load ptr, ptr %4, align 8, !tbaa !56
  %21 = getelementptr inbounds nuw %struct.NSVGshape, ptr %20, i32 0, i32 17
  %22 = load ptr, ptr %21, align 8, !tbaa !72
  call void @nsvg__deletePaths(ptr noundef %22)
  %23 = load ptr, ptr %4, align 8, !tbaa !56
  %24 = getelementptr inbounds nuw %struct.NSVGshape, ptr %23, i32 0, i32 1
  call void @nsvg__deletePaint(ptr noundef %24)
  %25 = load ptr, ptr %4, align 8, !tbaa !56
  %26 = getelementptr inbounds nuw %struct.NSVGshape, ptr %25, i32 0, i32 2
  call void @nsvg__deletePaint(ptr noundef %26)
  %27 = load ptr, ptr %4, align 8, !tbaa !56
  call void @free(ptr noundef %27) #11
  %28 = load ptr, ptr %3, align 8, !tbaa !56
  store ptr %28, ptr %4, align 8, !tbaa !56
  br label %13, !llvm.loop !93

29:                                               ; preds = %13
  %30 = load ptr, ptr %2, align 8, !tbaa !25
  call void @free(ptr noundef %30) #11
  store i32 0, ptr %5, align 4
  br label %31

31:                                               ; preds = %29, %8
  call void @llvm.lifetime.end.p0(i64 8, ptr %4) #11
  call void @llvm.lifetime.end.p0(i64 8, ptr %3) #11
  %32 = load i32, ptr %5, align 4
  switch i32 %32, label %34 [
    i32 0, label %33
    i32 1, label %33
  ]

33:                                               ; preds = %31, %31
  ret void

34:                                               ; preds = %31
  unreachable
}