; Function Attrs: nounwind uwtable
define dso_local void @nsvgDelete(ptr noundef captures(address_is_null) %0) local_unnamed_addr #0 {
  %2 = icmp eq ptr %0, null
  br i1 %2, label %27, label %3

3:                                                ; preds = %1
  %4 = getelementptr inbounds nuw i8, ptr %0, i64 8
  %5 = load ptr, ptr %4, align 8, !tbaa !45
  %.not13 = icmp eq ptr %5, null
  br i1 %.not13, label %._crit_edge, label %.lr.ph

.lr.ph:                                           ; preds = %3, %nsvg__deletePaint.exit12
  %.014 = phi ptr [ %7, %nsvg__deletePaint.exit12 ], [ %5, %3 ]
  %6 = getelementptr inbounds nuw i8, ptr %.014, i64 328
  %7 = load ptr, ptr %6, align 8, !tbaa !47
  %8 = getelementptr inbounds nuw i8, ptr %.014, i64 320
  %9 = load ptr, ptr %8, align 8, !tbaa !94
  %.not8.i = icmp eq ptr %9, null
  br i1 %.not8.i, label %nsvg__deletePaths.exit, label %.lr.ph.i

.lr.ph.i:                                         ; preds = %.lr.ph, %14
  %.09.i = phi ptr [ %11, %14 ], [ %9, %.lr.ph ]
  %10 = getelementptr inbounds nuw i8, ptr %.09.i, i64 32
  %11 = load ptr, ptr %10, align 8, !tbaa !72
  %12 = load ptr, ptr %.09.i, align 8, !tbaa !63
  %.not7.i = icmp eq ptr %12, null
  br i1 %.not7.i, label %14, label %13

13:                                               ; preds = %.lr.ph.i
  tail call void @free(ptr noundef nonnull %12) #31
  br label %14

14:                                               ; preds = %13, %.lr.ph.i
  tail call void @free(ptr noundef nonnull %.09.i) #31
  %.not.i = icmp eq ptr %11, null
  br i1 %.not.i, label %nsvg__deletePaths.exit, label %.lr.ph.i, !llvm.loop !73

nsvg__deletePaths.exit:                           ; preds = %14, %.lr.ph
  %15 = getelementptr inbounds nuw i8, ptr %.014, i64 64
  %16 = load i8, ptr %15, align 8, !tbaa !95
  %17 = and i8 %16, -2
  %switch.i = icmp eq i8 %17, 2
  br i1 %switch.i, label %18, label %nsvg__deletePaint.exit

18:                                               ; preds = %nsvg__deletePaths.exit
  %19 = getelementptr inbounds nuw i8, ptr %.014, i64 72
  %20 = load ptr, ptr %19, align 8, !tbaa !4
  tail call void @free(ptr noundef %20) #31
  br label %nsvg__deletePaint.exit

nsvg__deletePaint.exit:                           ; preds = %nsvg__deletePaths.exit, %18
  %21 = getelementptr inbounds nuw i8, ptr %.014, i64 80
  %22 = load i8, ptr %21, align 8, !tbaa !95
  %23 = and i8 %22, -2
  %switch.i11 = icmp eq i8 %23, 2
  br i1 %switch.i11, label %24, label %nsvg__deletePaint.exit12

24:                                               ; preds = %nsvg__deletePaint.exit
  %25 = getelementptr inbounds nuw i8, ptr %.014, i64 88
  %26 = load ptr, ptr %25, align 8, !tbaa !4
  tail call void @free(ptr noundef %26) #31
  br label %nsvg__deletePaint.exit12

nsvg__deletePaint.exit12:                         ; preds = %nsvg__deletePaint.exit, %24
  tail call void @free(ptr noundef nonnull %.014) #31
  %.not = icmp eq ptr %7, null
  br i1 %.not, label %._crit_edge, label %.lr.ph, !llvm.loop !96

._crit_edge:                                      ; preds = %nsvg__deletePaint.exit12, %3
  tail call void @free(ptr noundef %0) #31
  br label %27

27:                                               ; preds = %1, %._crit_edge
  ret void
}